target datalayout = "e-m:e-p270:32:32-p271:32:32-p272:64:64-i64:64-i128:128-f80:128-n8:16:32:64-S128"
target triple = "x86_64-pc-linux-gnu"

%"class.cv::datasets::TRACK_alov" = type { %"class.cv::datasets::Dataset", %"class.std::vector.8", i32, i32 }
%"class.cv::datasets::Dataset" = type { ptr, %"class.std::vector", %"class.std::vector", %"class.std::vector", %"class.std::vector.3" }
%"class.std::vector" = type { %"struct.std::_Vector_base" }
%"struct.std::_Vector_base" = type { %"struct.std::_Vector_base<std::vector<cv::Ptr<cv::datasets::Object>>, std::allocator<std::vector<cv::Ptr<cv::datasets::Object>>>>::_Vector_impl" }
%"struct.std::_Vector_base<std::vector<cv::Ptr<cv::datasets::Object>>, std::allocator<std::vector<cv::Ptr<cv::datasets::Object>>>>::_Vector_impl" = type { %"struct.std::_Vector_base<std::vector<cv::Ptr<cv::datasets::Object>>, std::allocator<std::vector<cv::Ptr<cv::datasets::Object>>>>::_Vector_impl_data" }
%"struct.std::_Vector_base<std::vector<cv::Ptr<cv::datasets::Object>>, std::allocator<std::vector<cv::Ptr<cv::datasets::Object>>>>::_Vector_impl_data" = type { ptr, ptr, ptr }
%"class.std::vector.3" = type { %"struct.std::_Vector_base.4" }
%"struct.std::_Vector_base.4" = type { %"struct.std::_Vector_base<cv::Ptr<cv::datasets::Object>, std::allocator<cv::Ptr<cv::datasets::Object>>>::_Vector_impl" }
%"struct.std::_Vector_base<cv::Ptr<cv::datasets::Object>, std::allocator<cv::Ptr<cv::datasets::Object>>>::_Vector_impl" = type { %"struct.std::_Vector_base<cv::Ptr<cv::datasets::Object>, std::allocator<cv::Ptr<cv::datasets::Object>>>::_Vector_impl_data" }
%"struct.std::_Vector_base<cv::Ptr<cv::datasets::Object>, std::allocator<cv::Ptr<cv::datasets::Object>>>::_Vector_impl_data" = type { ptr, ptr, ptr }
%"class.std::vector.8" = type { %"struct.std::_Vector_base.9" }
%"struct.std::_Vector_base.9" = type { %"struct.std::_Vector_base<std::vector<cv::Ptr<cv::datasets::TRACK_alovObj>>, std::allocator<std::vector<cv::Ptr<cv::datasets::TRACK_alovObj>>>>::_Vector_impl" }
%"struct.std::_Vector_base<std::vector<cv::Ptr<cv::datasets::TRACK_alovObj>>, std::allocator<std::vector<cv::Ptr<cv::datasets::TRACK_alovObj>>>>::_Vector_impl" = type { %"struct.std::_Vector_base<std::vector<cv::Ptr<cv::datasets::TRACK_alovObj>>, std::allocator<std::vector<cv::Ptr<cv::datasets::TRACK_alovObj>>>>::_Vector_impl_data" }
%"struct.std::_Vector_base<std::vector<cv::Ptr<cv::datasets::TRACK_alovObj>>, std::allocator<std::vector<cv::Ptr<cv::datasets::TRACK_alovObj>>>>::_Vector_impl_data" = type { ptr, ptr, ptr }

; Function Attrs: mustprogress nounwind uwtable
define linkonce_odr hidden noundef i64 @_ZNKSt6vectorIS_IN2cv3PtrINS0_8datasets13TRACK_alovObjEEESaIS4_EESaIS6_EE4sizeEv(ptr noundef nonnull align 8 dereferenceable(24) %0) #2 comdat align 2 {
  %2 = alloca ptr, align 8
  store ptr %0, ptr %2, align 8, !tbaa !69
  %3 = load ptr, ptr %2, align 8
  %4 = getelementptr inbounds nuw %"struct.std::_Vector_base.9", ptr %3, i32 0, i32 0
  %5 = getelementptr inbounds nuw %"struct.std::_Vector_base<std::vector<cv::Ptr<cv::datasets::TRACK_alovObj>>, std::allocator<std::vector<cv::Ptr<cv::datasets::TRACK_alovObj>>>>::_Vector_impl_data", ptr %4, i32 0, i32 1
  %6 = load ptr, ptr %5, align 8, !tbaa !71
  %7 = getelementptr inbounds nuw %"struct.std::_Vector_base.9", ptr %3, i32 0, i32 0
  %8 = getelementptr inbounds nuw %"struct.std::_Vector_base<std::vector<cv::Ptr<cv::datasets::TRACK_alovObj>>, std::allocator<std::vector<cv::Ptr<cv::datasets::TRACK_alovObj>>>>::_Vector_impl_data", ptr %7, i32 0, i32 0
  %9 = load ptr, ptr %8, align 8, !tbaa !85
  %10 = ptrtoint ptr %6 to i64
  %11 = ptrtoint ptr %9 to i64
  %12 = sub i64 %10, %11
  %13 = sdiv exact i64 %12, 24
  ret i64 %13
}

; Function Attrs: mustprogress nounwind uwtable
define hidden noundef i32 @_ZN2cv8datasets14TRACK_alovImpl14getDatasetsNumEv(ptr noundef nonnull align 8 dereferenceable(136) %0) unnamed_addr #2 align 2 {
  %2 = alloca ptr, align 8
  store ptr %0, ptr %2, align 8, !tbaa !13
  %3 = load ptr, ptr %2, align 8
  %4 = getelementptr inbounds nuw %"class.cv::datasets::TRACK_alov", ptr %3, i32 0, i32 1
  %5 = call noundef i64 @_ZNKSt6vectorIS_IN2cv3PtrINS0_8datasets13TRACK_alovObjEEESaIS4_EESaIS6_EE4sizeEv(ptr noundef nonnull align 8 dereferenceable(24) %4) #4
  %6 = trunc i64 %5 to i32
  ret i32 %6
}